(dp0
S'AWSELB'
p1
S'D9214D6508307E89860421CAE8AF3C4B5AD7978804594DEBB7C85B4009A679B143DDDAE2F7E81FF4AF4B2A9F21E2DD58144B4E783E9DBE963B2BBCDC28AE8201575F9682DF'
p2
sS'JSESSIONID'
p3
S'gr6ftn0wpysbiiatn0tkgqgd'
p4
s.